; Function Attrs: mustprogress nofree norecurse nosync nounwind memory(argmem: readwrite) uwtable
define internal void @_ZN2cv12cpu_baselineL13cvtScale16f8uEPKhmS2_mPhmNS_5Size_IiEEPv(ptr noundef readonly captures(none) %0, i64 noundef %1, ptr readnone captures(none) %2, i64 %3, ptr noundef writeonly captures(none) %4, i64 noundef %5, i64 %6, ptr noundef readonly captures(none) %7) #1 {
  %9 = load double, ptr %7, align 8, !tbaa !7
  %10 = fptrunc double %9 to float
  %11 = getelementptr inbounds nuw i8, ptr %7, i64 8
  %12 = load double, ptr %11, align 8, !tbaa !7
  %13 = fptrunc double %12 to float
  %.sroa.2.0.extract.shift.i = lshr i64 %6, 32
  %.sroa.2.0.extract.trunc.i = trunc nuw i64 %.sroa.2.0.extract.shift.i to i32
  %14 = lshr i64 %1, 1
  %15 = icmp sgt i32 %.sroa.2.0.extract.trunc.i, 0
  %.sroa.0.0.extract.trunc.i = trunc i64 %6 to i32
  %16 = icmp sgt i32 %.sroa.0.0.extract.trunc.i, 0
  %or.cond.i = and i1 %16, %15
  br i1 %or.cond.i, label %.preheader.us.preheader.i, label %_ZN2cv12cpu_baseline7cvt_32fINS_6hfloatEhEEvPKT_mPT0_mNS_5Size_IiEEff.exit

.preheader.us.preheader.i:                        ; preds = %8
  %wide.trip.count.i = and i64 %6, 2147483647
  br label %.preheader.us.i

.preheader.us.i:                                  ; preds = %._crit_edge.us.i, %.preheader.us.preheader.i
  %.01521.us.i = phi i32 [ %43, %._crit_edge.us.i ], [ 0, %.preheader.us.preheader.i ]
  %.01620.us.i = phi ptr [ %44, %._crit_edge.us.i ], [ %0, %.preheader.us.preheader.i ]
  %.01719.us.i = phi ptr [ %45, %._crit_edge.us.i ], [ %4, %.preheader.us.preheader.i ]
  br label %17

17:                                               ; preds = %_ZNK2cv6hfloatcvfEv.exit.us.i, %.preheader.us.i
  %indvars.iv.i = phi i64 [ 0, %.preheader.us.i ], [ %indvars.iv.next.i, %_ZNK2cv6hfloatcvfEv.exit.us.i ]
  %18 = getelementptr inbounds nuw %"class.cv::hfloat", ptr %.01620.us.i, i64 %indvars.iv.i
  %19 = load i16, ptr %18, align 2, !tbaa !45
  %20 = zext i16 %19 to i32
  %21 = shl nuw nsw i32 %20, 13
  %22 = and i32 %21, 268427264
  %23 = add nuw nsw i32 %22, 939524096
  %24 = and i32 %20, 31744
  switch i32 %24, label %_ZNK2cv6hfloatcvfEv.exit.us.i [
    i32 31744, label %30
    i32 0, label %25
  ]

25:                                               ; preds = %17
  %26 = add nuw nsw i32 %22, 947912704
  %27 = bitcast i32 %26 to float
  %28 = fadd float %27, 0xBF10000000000000
  %29 = bitcast float %28 to i32
  br label %_ZNK2cv6hfloatcvfEv.exit.us.i

30:                                               ; preds = %17
  %31 = or i32 %21, 1879048192
  br label %_ZNK2cv6hfloatcvfEv.exit.us.i

_ZNK2cv6hfloatcvfEv.exit.us.i:                    ; preds = %30, %25, %17
  %32 = phi i32 [ %31, %30 ], [ %29, %25 ], [ %23, %17 ]
  %.signext.i.us.i = sext i16 %19 to i32
  %33 = and i32 %.signext.i.us.i, -2147483648
  %34 = or i32 %32, %33
  %35 = bitcast i32 %34 to float
  %36 = tail call float @llvm.fmuladd.f32(float %35, float %10, float %13)
  %37 = insertelement <4 x float> poison, float %36, i64 0
  %38 = tail call noundef i32 @llvm.x86.sse.cvtss2si(<4 x float> %37)
  %39 = tail call i32 @llvm.smax.i32(i32 %38, i32 0)
  %40 = tail call i32 @llvm.umin.i32(i32 %39, i32 255)
  %41 = trunc nuw i32 %40 to i8
  %42 = getelementptr inbounds nuw i8, ptr %.01719.us.i, i64 %indvars.iv.i
  store i8 %41, ptr %42, align 1, !tbaa !9
  %indvars.iv.next.i = add nuw nsw i64 %indvars.iv.i, 1
  %exitcond.not.i = icmp eq i64 %indvars.iv.next.i, %wide.trip.count.i
  br i1 %exitcond.not.i, label %._crit_edge.us.i, label %17, !llvm.loop !47

._crit_edge.us.i:                                 ; preds = %_ZNK2cv6hfloatcvfEv.exit.us.i
  %43 = add nuw nsw i32 %.01521.us.i, 1
  %44 = getelementptr inbounds nuw %"class.cv::hfloat", ptr %.01620.us.i, i64 %14
  %45 = getelementptr inbounds nuw i8, ptr %.01719.us.i, i64 %5
  %exitcond25.not.i = icmp eq i32 %43, %.sroa.2.0.extract.trunc.i
  br i1 %exitcond25.not.i, label %_ZN2cv12cpu_baseline7cvt_32fINS_6hfloatEhEEvPKT_mPT0_mNS_5Size_IiEEff.exit, label %.preheader.us.i, !llvm.loop !48

_ZN2cv12cpu_baseline7cvt_32fINS_6hfloatEhEEvPKT_mPT0_mNS_5Size_IiEEff.exit: ; preds = %._crit_edge.us.i, %8
  ret void
}